; ModuleID = 'source-C-CXX/2/2408.c'
source_filename = "source-C-CXX/2/2408.c"
target datalayout = "e-m:e-p270:32:32-p271:32:32-p272:64:64-i64:64-f80:128-n8:16:32:64-S128"
target triple = "x86_64-pc-linux-gnu"

@.str = private unnamed_addr constant [6 x i8] c"%d %d\00", align 1
@.str.1 = private unnamed_addr constant [3 x i8] c"%d\00", align 1
@.str.2 = private unnamed_addr constant [4 x i8] c"yes\00", align 1
@.str.3 = private unnamed_addr constant [3 x i8] c"no\00", align 1

; Function Attrs: nofree nounwind sspstrong uwtable
define dso_local i32 @main() local_unnamed_addr #0 {
  %1 = alloca i32, align 4
  %2 = alloca i32, align 4
  %3 = alloca [100 x i32], align 16
  %4 = bitcast i32* %1 to i8*
  call void @llvm.lifetime.start.p0i8(i64 4, i8* nonnull %4) #3
  %5 = bitcast i32* %2 to i8*
  call void @llvm.lifetime.start.p0i8(i64 4, i8* nonnull %5) #3
  %6 = bitcast [100 x i32]* %3 to i8*
  call void @llvm.lifetime.start.p0i8(i64 400, i8* nonnull %6) #3
  %7 = call i32 (i8*, ...) @__isoc99_scanf(i8* getelementptr inbounds ([6 x i8], [6 x i8]* @.str, i64 0, i64 0), i32* nonnull %1, i32* nonnull %2)
  %8 = load i32, i32* %1, align 4, !tbaa !5
  %9 = icmp sgt i32 %8, 0
  br i1 %9, label %14, label %66

10:                                               ; preds = %14
  %11 = icmp sgt i32 %19, 0
  br i1 %11, label %12, label %66

12:                                               ; preds = %10
  %13 = load i32, i32* %2, align 4
  br label %22

14:                                               ; preds = %0, %14
  %15 = phi i64 [ %18, %14 ], [ 0, %0 ]
  %16 = getelementptr inbounds [100 x i32], [100 x i32]* %3, i64 0, i64 %15
  %17 = call i32 (i8*, ...) @__isoc99_scanf(i8* getelementptr inbounds ([3 x i8], [3 x i8]* @.str.1, i64 0, i64 0), i32* nonnull %16)
  %18 = add nuw nsw i64 %15, 1
  %19 = load i32, i32* %1, align 4, !tbaa !5
  %20 = sext i32 %19 to i64
  %21 = icmp slt i64 %18, %20
  br i1 %21, label %14, label %10, !llvm.loop !9

22:                                               ; preds = %12, %60
  %23 = phi i32 [ %13, %12 ], [ %48, %60 ]
  %24 = phi i64 [ 0, %12 ], [ %61, %60 ]
  %25 = phi i32 [ %19, %12 ], [ %63, %60 ]
  %26 = phi i32 [ 0, %12 ], [ %62, %60 ]
  %27 = icmp sgt i32 %25, 1
  br i1 %27, label %28, label %47

28:                                               ; preds = %22
  %29 = getelementptr inbounds [100 x i32], [100 x i32]* %3, i64 0, i64 %24
  %30 = load i32, i32* %29, align 4, !tbaa !5
  %31 = add nsw i32 %25, -2
  %32 = zext i32 %31 to i64
  %33 = add nuw nsw i64 %32, 2
  %34 = zext i32 %25 to i64
  br label %35

35:                                               ; preds = %28, %44
  %36 = phi i64 [ 1, %28 ], [ %45, %44 ]
  %37 = getelementptr inbounds [100 x i32], [100 x i32]* %3, i64 0, i64 %36
  %38 = load i32, i32* %37, align 4, !tbaa !5
  %39 = sub nsw i32 %23, %38
  %40 = icmp eq i32 %30, %39
  br i1 %40, label %41, label %44

41:                                               ; preds = %35
  %42 = call i32 (i8*, ...) @printf(i8* nonnull dereferenceable(1) getelementptr inbounds ([4 x i8], [4 x i8]* @.str.2, i64 0, i64 0))
  %43 = load i32, i32* %2, align 4, !tbaa !5
  br label %47

44:                                               ; preds = %35
  %45 = add nuw nsw i64 %36, 1
  %46 = icmp eq i64 %45, %34
  br i1 %46, label %47, label %35, !llvm.loop !11

47:                                               ; preds = %44, %22, %41
  %48 = phi i32 [ %43, %41 ], [ %23, %22 ], [ %23, %44 ]
  %49 = phi i64 [ %36, %41 ], [ 1, %22 ], [ %33, %44 ]
  %50 = getelementptr inbounds [100 x i32], [100 x i32]* %3, i64 0, i64 %24
  %51 = load i32, i32* %50, align 4, !tbaa !5
  %52 = and i64 %49, 4294967295
  %53 = getelementptr inbounds [100 x i32], [100 x i32]* %3, i64 0, i64 %52
  %54 = load i32, i32* %53, align 4, !tbaa !5
  %55 = sub nsw i32 %48, %54
  %56 = icmp eq i32 %51, %55
  br i1 %56, label %57, label %60

57:                                               ; preds = %47
  %58 = trunc i64 %24 to i32
  %59 = load i32, i32* %1, align 4, !tbaa !5
  br label %66

60:                                               ; preds = %47
  %61 = add nuw nsw i64 %24, 1
  %62 = add nuw nsw i32 %26, 1
  %63 = load i32, i32* %1, align 4, !tbaa !5
  %64 = sext i32 %63 to i64
  %65 = icmp slt i64 %61, %64
  br i1 %65, label %22, label %66, !llvm.loop !12

66:                                               ; preds = %60, %0, %57, %10
  %67 = phi i32 [ %19, %10 ], [ %59, %57 ], [ %8, %0 ], [ %63, %60 ]
  %68 = phi i32 [ 0, %10 ], [ %58, %57 ], [ 0, %0 ], [ %62, %60 ]
  %69 = icmp eq i32 %68, %67
  br i1 %69, label %70, label %72

70:                                               ; preds = %66
  %71 = call i32 (i8*, ...) @printf(i8* nonnull dereferenceable(1) getelementptr inbounds ([3 x i8], [3 x i8]* @.str.3, i64 0, i64 0))
  br label %72

72:                                               ; preds = %70, %66
  call void @llvm.lifetime.end.p0i8(i64 400, i8* nonnull %6) #3
  call void @llvm.lifetime.end.p0i8(i64 4, i8* nonnull %5) #3
  call void @llvm.lifetime.end.p0i8(i64 4, i8* nonnull %4) #3
  ret i32 0
}

; Function Attrs: argmemonly mustprogress nofree nosync nounwind willreturn
declare void @llvm.lifetime.start.p0i8(i64 immarg, i8* nocapture) #1

; Function Attrs: nofree nounwind
declare noundef i32 @__isoc99_scanf(i8* nocapture noundef readonly, ...) local_unnamed_addr #2

; Function Attrs: nofree nounwind
declare noundef i32 @printf(i8* nocapture noundef readonly, ...) local_unnamed_addr #2

; Function Attrs: argmemonly mustprogress nofree nosync nounwind willreturn
declare void @llvm.lifetime.end.p0i8(i64 immarg, i8* nocapture) #1


!llvm.module.flags = !{!0, !1, !2, !3}
!llvm.ident = !{!4}

!0 = !{i32 1, !"wchar_size", i32 4}
!1 = !{i32 7, !"PIC Level", i32 2}
!2 = !{i32 7, !"PIE Level", i32 2}
!3 = !{i32 7, !"uwtable", i32 1}
!4 = !{!"clang version 13.0.0"}
!5 = !{!6, !6, i64 0}
!6 = !{!"int", !7, i64 0}
!7 = !{!"omnipotent char", !8, i64 0}
!8 = !{!"Simple C/C++ TBAA"}
!9 = distinct !{!9, !10}
!10 = !{!"llvm.loop.mustprogress"}
!11 = distinct !{!11, !10}
!12 = distinct !{!12, !10}
